target datalayout = "e-m:e-p270:32:32-p271:32:32-p272:64:64-i64:64-i128:128-f80:128-n8:16:32:64-S128"
target triple = "x86_64-unknown-linux-gnu"

%"class.std::__cxx11::basic_string" = type { %"struct.std::__cxx11::basic_string<char>::_Alloc_hider", i64, %union.anon }
%"struct.std::__cxx11::basic_string<char>::_Alloc_hider" = type { ptr }
%union.anon = type { i64, [8 x i8] }
%"class.OpenColorIO_v2_4dev::MetalShaderClassWrapper" = type { %"class.OpenColorIO_v2_4dev::GpuShaderClassWrapper", %"class.std::__cxx11::basic_string", %"class.std::__cxx11::basic_string", %"class.std::vector" }
%"class.OpenColorIO_v2_4dev::GpuShaderClassWrapper" = type { ptr }
%"class.std::vector" = type { %"struct.std::_Vector_base" }
%"struct.std::_Vector_base" = type { %"struct.std::_Vector_base<OpenColorIO_v2_4dev::MetalShaderClassWrapper::FunctionParam, std::allocator<OpenColorIO_v2_4dev::MetalShaderClassWrapper::FunctionParam>>::_Vector_impl" }
%"struct.std::_Vector_base<OpenColorIO_v2_4dev::MetalShaderClassWrapper::FunctionParam, std::allocator<OpenColorIO_v2_4dev::MetalShaderClassWrapper::FunctionParam>>::_Vector_impl" = type { %"struct.std::_Vector_base<OpenColorIO_v2_4dev::MetalShaderClassWrapper::FunctionParam, std::allocator<OpenColorIO_v2_4dev::MetalShaderClassWrapper::FunctionParam>>::_Vector_impl_data" }
%"struct.std::_Vector_base<OpenColorIO_v2_4dev::MetalShaderClassWrapper::FunctionParam, std::allocator<OpenColorIO_v2_4dev::MetalShaderClassWrapper::FunctionParam>>::_Vector_impl_data" = type { ptr, ptr, ptr }

; Function Attrs: mustprogress uwtable
define hidden void @_ZN19OpenColorIO_v2_4dev23MetalShaderClassWrapper19prepareClassWrapperERKNSt7__cxx1112basic_stringIcSt11char_traitsIcESaIcEEES8_S8_(ptr noundef nonnull align 8 dereferenceable(96) %this, ptr noundef nonnull align 8 dereferenceable(32) %resourcePrefix, ptr noundef nonnull align 8 dereferenceable(32) %functionName, ptr noundef nonnull align 8 dereferenceable(32) %originalHeader) unnamed_addr #0 align 2 {
entry:
  %this.addr = alloca ptr, align 8
  %resourcePrefix.addr = alloca ptr, align 8
  %functionName.addr = alloca ptr, align 8
  %originalHeader.addr = alloca ptr, align 8
  %ref.tmp = alloca %"class.std::__cxx11::basic_string", align 8
  store ptr %this, ptr %this.addr, align 8
  store ptr %resourcePrefix, ptr %resourcePrefix.addr, align 8
  store ptr %functionName, ptr %functionName.addr, align 8
  store ptr %originalHeader, ptr %originalHeader.addr, align 8
  %this1 = load ptr, ptr %this.addr, align 8
  %0 = load ptr, ptr %functionName.addr, align 8
  %m_functionName = getelementptr inbounds %"class.OpenColorIO_v2_4dev::MetalShaderClassWrapper", ptr %this1, i32 0, i32 2
  %call = call noundef nonnull align 8 dereferenceable(32) ptr @_ZNSt7__cxx1112basic_stringIcSt11char_traitsIcESaIcEEaSERKS4_(ptr noundef nonnull align 8 dereferenceable(32) %m_functionName, ptr noundef nonnull align 8 dereferenceable(32) %0)
  %1 = load ptr, ptr %resourcePrefix.addr, align 8
  %2 = load ptr, ptr %functionName.addr, align 8
  call void @_ZN19OpenColorIO_v2_4dev23MetalShaderClassWrapper19getClassWrapperNameERKNSt7__cxx1112basic_stringIcSt11char_traitsIcESaIcEEES8_(ptr sret(%"class.std::__cxx11::basic_string") align 8 %ref.tmp, ptr noundef nonnull align 8 dereferenceable(32) %1, ptr noundef nonnull align 8 dereferenceable(32) %2)
  %m_className = getelementptr inbounds %"class.OpenColorIO_v2_4dev::MetalShaderClassWrapper", ptr %this1, i32 0, i32 1
  %call2 = call noundef nonnull align 8 dereferenceable(32) ptr @_ZNSt7__cxx1112basic_stringIcSt11char_traitsIcESaIcEEaSEOS4_(ptr noundef nonnull align 8 dereferenceable(32) %m_className, ptr noundef nonnull align 8 dereferenceable(32) %ref.tmp) #12
  call void @_ZNSt7__cxx1112basic_stringIcSt11char_traitsIcESaIcEED1Ev(ptr noundef nonnull align 8 dereferenceable(32) %ref.tmp) #12
  %3 = load ptr, ptr %originalHeader.addr, align 8
  call void @_ZN19OpenColorIO_v2_4dev23MetalShaderClassWrapper25extractFunctionParametersERKNSt7__cxx1112basic_stringIcSt11char_traitsIcESaIcEEE(ptr noundef nonnull align 8 dereferenceable(96) %this1, ptr noundef nonnull align 8 dereferenceable(32) %3)
  ret void
}