; Function Attrs: mustprogress uwtable
define hidden void @_ZN19OpenColorIO_v2_4dev23MetalShaderClassWrapper19prepareClassWrapperERKNSt7__cxx1112basic_stringIcSt11char_traitsIcESaIcEEES8_S8_(ptr noundef nonnull align 8 dereferenceable(96) %this, ptr noundef nonnull align 8 dereferenceable(32) %resourcePrefix, ptr noundef nonnull align 8 dereferenceable(32) %functionName, ptr noundef nonnull align 8 dereferenceable(32) %originalHeader) unnamed_addr #0 align 2 {
entry:
  %ref.tmp = alloca %"class.std::__cxx11::basic_string", align 8
  %m_functionName = getelementptr inbounds i8, ptr %this, i64 40
  %call = tail call noundef nonnull align 8 dereferenceable(32) ptr @_ZNSt7__cxx1112basic_stringIcSt11char_traitsIcESaIcEEaSERKS4_(ptr noundef nonnull align 8 dereferenceable(32) %m_functionName, ptr noundef nonnull align 8 dereferenceable(32) %functionName)
  call void @_ZN19OpenColorIO_v2_4dev23MetalShaderClassWrapper19getClassWrapperNameERKNSt7__cxx1112basic_stringIcSt11char_traitsIcESaIcEEES8_(ptr nonnull sret(%"class.std::__cxx11::basic_string") align 8 %ref.tmp, ptr noundef nonnull align 8 dereferenceable(32) %resourcePrefix, ptr noundef nonnull align 8 dereferenceable(32) %functionName)
  %m_className = getelementptr inbounds i8, ptr %this, i64 8
  %call2 = call noundef nonnull align 8 dereferenceable(32) ptr @_ZNSt7__cxx1112basic_stringIcSt11char_traitsIcESaIcEEaSEOS4_(ptr noundef nonnull align 8 dereferenceable(32) %m_className, ptr noundef nonnull align 8 dereferenceable(32) %ref.tmp) #13
  call void @_ZNSt7__cxx1112basic_stringIcSt11char_traitsIcESaIcEED1Ev(ptr noundef nonnull align 8 dereferenceable(32) %ref.tmp) #13
  call void @_ZN19OpenColorIO_v2_4dev23MetalShaderClassWrapper25extractFunctionParametersERKNSt7__cxx1112basic_stringIcSt11char_traitsIcESaIcEEE(ptr noundef nonnull align 8 dereferenceable(96) %this, ptr noundef nonnull align 8 dereferenceable(32) %originalHeader)
  ret void
}